target datalayout = "e-m:e-p270:32:32-p271:32:32-p272:64:64-i64:64-i128:128-f80:128-n8:16:32:64-S128"
target triple = "x86_64-pc-linux-gnu"

@.str.6 = private unnamed_addr constant [2 x i8] c".\00", align 1

; Function Attrs: nounwind uwtable
define i32 @fsync_parent_path(ptr noundef %0) #0 {
  %2 = alloca i32, align 4
  %3 = alloca ptr, align 8
  %4 = alloca [1024 x i8], align 16
  %5 = alloca i32, align 4
  store ptr %0, ptr %3, align 8
  call void @llvm.lifetime.start.p0(i64 1024, ptr %4) #9
  %6 = getelementptr inbounds [1024 x i8], ptr %4, i64 0, i64 0
  %7 = load ptr, ptr %3, align 8
  %8 = call i64 @strlcpy(ptr noundef %6, ptr noundef %7, i64 noundef 1024)
  %9 = getelementptr inbounds [1024 x i8], ptr %4, i64 0, i64 0
  call void @get_parent_directory(ptr noundef %9)
  %10 = getelementptr inbounds [1024 x i8], ptr %4, i64 0, i64 0
  %11 = call i64 @strlen(ptr noundef %10) #11
  %12 = icmp eq i64 %11, 0
  br i1 %12, label %13, label %16

13:                                               ; preds = %1
  %14 = getelementptr inbounds [1024 x i8], ptr %4, i64 0, i64 0
  %15 = call i64 @strlcpy(ptr noundef %14, ptr noundef @.str.6, i64 noundef 1024)
  br label %16

16:                                               ; preds = %13, %1
  %17 = getelementptr inbounds [1024 x i8], ptr %4, i64 0, i64 0
  %18 = call i32 @fsync_fname(ptr noundef %17, i1 noundef zeroext true)
  %19 = icmp ne i32 %18, 0
  br i1 %19, label %20, label %21

20:                                               ; preds = %16
  store i32 -1, ptr %2, align 4
  store i32 1, ptr %5, align 4
  br label %22

21:                                               ; preds = %16
  store i32 0, ptr %2, align 4
  store i32 1, ptr %5, align 4
  br label %22

22:                                               ; preds = %21, %20
  call void @llvm.lifetime.end.p0(i64 1024, ptr %4) #9
  %23 = load i32, ptr %2, align 4
  ret i32 %23
}