; Function Attrs: nounwind uwtable
define range(i32 -1, 1) i32 @fsync_parent_path(ptr noundef %0) local_unnamed_addr #0 {
  %2 = alloca [1024 x i8], align 16
  call void @llvm.lifetime.start.p0(i64 1024, ptr nonnull %2) #11
  %3 = call i64 @strlcpy(ptr noundef nonnull dereferenceable(1) %2, ptr noundef nonnull dereferenceable(1) %0, i64 noundef 1024) #11
  call void @get_parent_directory(ptr noundef nonnull %2) #11
  %char0 = load i8, ptr %2, align 16
  %4 = icmp eq i8 %char0, 0
  br i1 %4, label %5, label %6

5:                                                ; preds = %1
  store i16 46, ptr %2, align 16
  br label %6

6:                                                ; preds = %5, %1
  %7 = call i32 @fsync_fname(ptr noundef nonnull %2, i1 noundef zeroext true)
  %.not = icmp ne i32 %7, 0
  %. = sext i1 %.not to i32
  call void @llvm.lifetime.end.p0(i64 1024, ptr nonnull %2) #11
  ret i32 %.
}